target datalayout = "e-m:e-p270:32:32-p271:32:32-p272:64:64-i64:64-i128:128-f80:128-n8:16:32:64-S128"
target triple = "x86_64-pc-linux-gnu"

%struct.block = type { ptr, ptr }
%struct.jv = type { i8, i8, i16, i32, %union.anon }
%union.anon = type { ptr }
%struct.bytecode = type { ptr, i32, i32, i32, %struct.jv, ptr, ptr, i32, ptr, %struct.jv }
%struct.symbol_table = type { ptr, i32, %struct.jv }

@.str.13 = private unnamed_addr constant [5 x i8] c"name\00", align 1

; Function Attrs: nounwind uwtable
define dso_local i32 @block_compile(ptr %0, ptr %1, ptr noundef %2, ptr noundef %3, i64 %4, ptr %5) #0 {
  %7 = alloca %struct.block, align 8
  %8 = alloca %struct.jv, align 8
  %9 = alloca ptr, align 8
  %10 = alloca ptr, align 8
  %11 = alloca ptr, align 8
  %12 = alloca i32, align 4
  %13 = alloca %struct.jv, align 8
  %14 = alloca %struct.jv, align 8
  %15 = alloca %struct.jv, align 8
  %16 = alloca %struct.jv, align 8
  %17 = alloca %struct.jv, align 8
  %18 = alloca %struct.jv, align 8
  %19 = alloca i32, align 4
  %20 = getelementptr inbounds nuw { ptr, ptr }, ptr %7, i32 0, i32 0
  store ptr %0, ptr %20, align 8
  %21 = getelementptr inbounds nuw { ptr, ptr }, ptr %7, i32 0, i32 1
  store ptr %1, ptr %21, align 8
  %22 = getelementptr inbounds nuw { i64, ptr }, ptr %8, i32 0, i32 0
  store i64 %4, ptr %22, align 8
  %23 = getelementptr inbounds nuw { i64, ptr }, ptr %8, i32 0, i32 1
  store ptr %5, ptr %23, align 8
  store ptr %2, ptr %9, align 8, !tbaa !78
  store ptr %3, ptr %10, align 8, !tbaa !11
  call void @llvm.lifetime.start.p0(i64 8, ptr %11) #7
  %24 = call ptr @jv_mem_alloc(i64 noundef 88)
  store ptr %24, ptr %11, align 8, !tbaa !80
  %25 = load ptr, ptr %11, align 8, !tbaa !80
  %26 = getelementptr inbounds nuw %struct.bytecode, ptr %25, i32 0, i32 8
  store ptr null, ptr %26, align 8, !tbaa !81
  %27 = load ptr, ptr %11, align 8, !tbaa !80
  %28 = getelementptr inbounds nuw %struct.bytecode, ptr %27, i32 0, i32 3
  store i32 0, ptr %28, align 8, !tbaa !85
  %29 = call ptr @jv_mem_alloc(i64 noundef 32)
  %30 = load ptr, ptr %11, align 8, !tbaa !80
  %31 = getelementptr inbounds nuw %struct.bytecode, ptr %30, i32 0, i32 5
  store ptr %29, ptr %31, align 8, !tbaa !86
  call void @llvm.lifetime.start.p0(i64 4, ptr %12) #7
  %32 = getelementptr inbounds nuw { ptr, ptr }, ptr %7, i32 0, i32 0
  %33 = load ptr, ptr %32, align 8
  %34 = getelementptr inbounds nuw { ptr, ptr }, ptr %7, i32 0, i32 1
  %35 = load ptr, ptr %34, align 8
  %36 = call i32 @count_cfunctions(ptr %33, ptr %35)
  store i32 %36, ptr %12, align 4, !tbaa !26
  %37 = load ptr, ptr %11, align 8, !tbaa !80
  %38 = getelementptr inbounds nuw %struct.bytecode, ptr %37, i32 0, i32 5
  %39 = load ptr, ptr %38, align 8, !tbaa !86
  %40 = getelementptr inbounds nuw %struct.symbol_table, ptr %39, i32 0, i32 1
  store i32 0, ptr %40, align 8, !tbaa !87
  %41 = load i32, ptr %12, align 4, !tbaa !26
  %42 = sext i32 %41 to i64
  %43 = call ptr @jv_mem_calloc(i64 noundef %42, i64 noundef 24)
  %44 = load ptr, ptr %11, align 8, !tbaa !80
  %45 = getelementptr inbounds nuw %struct.bytecode, ptr %44, i32 0, i32 5
  %46 = load ptr, ptr %45, align 8, !tbaa !86
  %47 = getelementptr inbounds nuw %struct.symbol_table, ptr %46, i32 0, i32 0
  store ptr %43, ptr %47, align 8, !tbaa !89
  %48 = load ptr, ptr %11, align 8, !tbaa !80
  %49 = getelementptr inbounds nuw %struct.bytecode, ptr %48, i32 0, i32 5
  %50 = load ptr, ptr %49, align 8, !tbaa !86
  %51 = getelementptr inbounds nuw %struct.symbol_table, ptr %50, i32 0, i32 2
  call void @llvm.lifetime.start.p0(i64 16, ptr %13) #7
  %52 = call { i64, ptr } @jv_array()
  %53 = getelementptr inbounds nuw { i64, ptr }, ptr %13, i32 0, i32 0
  %54 = extractvalue { i64, ptr } %52, 0
  store i64 %54, ptr %53, align 8
  %55 = getelementptr inbounds nuw { i64, ptr }, ptr %13, i32 0, i32 1
  %56 = extractvalue { i64, ptr } %52, 1
  store ptr %56, ptr %55, align 8
  call void @llvm.memcpy.p0.p0.i64(ptr align 8 %51, ptr align 8 %13, i64 16, i1 false), !tbaa.struct !41
  call void @llvm.lifetime.end.p0(i64 16, ptr %13) #7
  %57 = load ptr, ptr %11, align 8, !tbaa !80
  %58 = getelementptr inbounds nuw %struct.bytecode, ptr %57, i32 0, i32 9
  call void @llvm.lifetime.start.p0(i64 16, ptr %14) #7
  %59 = call { i64, ptr } @jv_object()
  %60 = getelementptr inbounds nuw { i64, ptr }, ptr %15, i32 0, i32 0
  %61 = extractvalue { i64, ptr } %59, 0
  store i64 %61, ptr %60, align 8
  %62 = getelementptr inbounds nuw { i64, ptr }, ptr %15, i32 0, i32 1
  %63 = extractvalue { i64, ptr } %59, 1
  store ptr %63, ptr %62, align 8
  %64 = call { i64, ptr } @jv_string(ptr noundef @.str.13)
  %65 = getelementptr inbounds nuw { i64, ptr }, ptr %16, i32 0, i32 0
  %66 = extractvalue { i64, ptr } %64, 0
  store i64 %66, ptr %65, align 8
  %67 = getelementptr inbounds nuw { i64, ptr }, ptr %16, i32 0, i32 1
  %68 = extractvalue { i64, ptr } %64, 1
  store ptr %68, ptr %67, align 8
  %69 = call { i64, ptr } @jv_null()
  %70 = getelementptr inbounds nuw { i64, ptr }, ptr %17, i32 0, i32 0
  %71 = extractvalue { i64, ptr } %69, 0
  store i64 %71, ptr %70, align 8
  %72 = getelementptr inbounds nuw { i64, ptr }, ptr %17, i32 0, i32 1
  %73 = extractvalue { i64, ptr } %69, 1
  store ptr %73, ptr %72, align 8
  %74 = getelementptr inbounds nuw { i64, ptr }, ptr %15, i32 0, i32 0
  %75 = load i64, ptr %74, align 8
  %76 = getelementptr inbounds nuw { i64, ptr }, ptr %15, i32 0, i32 1
  %77 = load ptr, ptr %76, align 8
  %78 = getelementptr inbounds nuw { i64, ptr }, ptr %16, i32 0, i32 0
  %79 = load i64, ptr %78, align 8
  %80 = getelementptr inbounds nuw { i64, ptr }, ptr %16, i32 0, i32 1
  %81 = load ptr, ptr %80, align 8
  %82 = getelementptr inbounds nuw { i64, ptr }, ptr %17, i32 0, i32 0
  %83 = load i64, ptr %82, align 8
  %84 = getelementptr inbounds nuw { i64, ptr }, ptr %17, i32 0, i32 1
  %85 = load ptr, ptr %84, align 8
  %86 = call { i64, ptr } @jv_object_set(i64 %75, ptr %77, i64 %79, ptr %81, i64 %83, ptr %85)
  %87 = getelementptr inbounds nuw { i64, ptr }, ptr %14, i32 0, i32 0
  %88 = extractvalue { i64, ptr } %86, 0
  store i64 %88, ptr %87, align 8
  %89 = getelementptr inbounds nuw { i64, ptr }, ptr %14, i32 0, i32 1
  %90 = extractvalue { i64, ptr } %86, 1
  store ptr %90, ptr %89, align 8
  call void @llvm.memcpy.p0.p0.i64(ptr align 8 %58, ptr align 8 %14, i64 16, i1 false), !tbaa.struct !41
  call void @llvm.lifetime.end.p0(i64 16, ptr %14) #7
  call void @llvm.lifetime.start.p0(i64 16, ptr %18) #7
  %91 = call { i64, ptr } @jv_invalid()
  %92 = getelementptr inbounds nuw { i64, ptr }, ptr %18, i32 0, i32 0
  %93 = extractvalue { i64, ptr } %91, 0
  store i64 %93, ptr %92, align 8
  %94 = getelementptr inbounds nuw { i64, ptr }, ptr %18, i32 0, i32 1
  %95 = extractvalue { i64, ptr } %91, 1
  store ptr %95, ptr %94, align 8
  call void @llvm.lifetime.start.p0(i64 4, ptr %19) #7
  %96 = load ptr, ptr %11, align 8, !tbaa !80
  %97 = load ptr, ptr %10, align 8, !tbaa !11
  %98 = getelementptr inbounds nuw { ptr, ptr }, ptr %7, i32 0, i32 0
  %99 = load ptr, ptr %98, align 8
  %100 = getelementptr inbounds nuw { ptr, ptr }, ptr %7, i32 0, i32 1
  %101 = load ptr, ptr %100, align 8
  %102 = getelementptr inbounds nuw { i64, ptr }, ptr %8, i32 0, i32 0
  %103 = load i64, ptr %102, align 8
  %104 = getelementptr inbounds nuw { i64, ptr }, ptr %8, i32 0, i32 1
  %105 = load ptr, ptr %104, align 8
  %106 = call i32 @compile(ptr noundef %96, ptr %99, ptr %101, ptr noundef %97, i64 %103, ptr %105, ptr noundef %18)
  store i32 %106, ptr %19, align 4, !tbaa !26
  %107 = getelementptr inbounds nuw { i64, ptr }, ptr %8, i32 0, i32 0
  %108 = load i64, ptr %107, align 8
  %109 = getelementptr inbounds nuw { i64, ptr }, ptr %8, i32 0, i32 1
  %110 = load ptr, ptr %109, align 8
  call void @jv_free(i64 %108, ptr %110)
  %111 = getelementptr inbounds nuw { i64, ptr }, ptr %18, i32 0, i32 0
  %112 = load i64, ptr %111, align 8
  %113 = getelementptr inbounds nuw { i64, ptr }, ptr %18, i32 0, i32 1
  %114 = load ptr, ptr %113, align 8
  call void @jv_free(i64 %112, ptr %114)
  %115 = load i32, ptr %19, align 4, !tbaa !26
  %116 = icmp sgt i32 %115, 0
  br i1 %116, label %117, label %120

117:                                              ; preds = %6
  %118 = load ptr, ptr %11, align 8, !tbaa !80
  call void @bytecode_free(ptr noundef %118)
  %119 = load ptr, ptr %9, align 8, !tbaa !78
  store ptr null, ptr %119, align 8, !tbaa !80
  br label %123

120:                                              ; preds = %6
  %121 = load ptr, ptr %11, align 8, !tbaa !80
  %122 = load ptr, ptr %9, align 8, !tbaa !78
  store ptr %121, ptr %122, align 8, !tbaa !80
  br label %123

123:                                              ; preds = %120, %117
  %124 = load i32, ptr %19, align 4, !tbaa !26
  call void @llvm.lifetime.end.p0(i64 4, ptr %19) #7
  call void @llvm.lifetime.end.p0(i64 16, ptr %18) #7
  call void @llvm.lifetime.end.p0(i64 4, ptr %12) #7
  call void @llvm.lifetime.end.p0(i64 8, ptr %11) #7
  ret i32 %124
}