; Function Attrs: nounwind uwtable
define dso_local i32 @block_compile(ptr %0, ptr %1, ptr noundef writeonly captures(none) initializes((0, 8)) %2, ptr noundef %3, i64 %4, ptr %5) local_unnamed_addr #1 {
  %7 = alloca %struct.jv, align 8
  %8 = tail call ptr @jv_mem_alloc(i64 noundef 88) #17
  %9 = getelementptr inbounds nuw i8, ptr %8, i64 64
  store ptr null, ptr %9, align 8, !tbaa !67
  %10 = getelementptr inbounds nuw i8, ptr %8, i64 16
  store i32 0, ptr %10, align 8, !tbaa !72
  %11 = tail call ptr @jv_mem_alloc(i64 noundef 32) #17
  %12 = getelementptr inbounds nuw i8, ptr %8, i64 40
  store ptr %11, ptr %12, align 8, !tbaa !73
  %13 = tail call fastcc i32 @count_cfunctions(ptr %0)
  %14 = getelementptr inbounds nuw i8, ptr %11, i64 8
  store i32 0, ptr %14, align 8, !tbaa !74
  %15 = sext i32 %13 to i64
  %16 = tail call ptr @jv_mem_calloc(i64 noundef %15, i64 noundef 24) #17
  %17 = load ptr, ptr %12, align 8, !tbaa !73
  store ptr %16, ptr %17, align 8, !tbaa !76
  %18 = getelementptr inbounds nuw i8, ptr %17, i64 16
  %19 = tail call { i64, ptr } @jv_array() #17
  %20 = extractvalue { i64, ptr } %19, 0
  %21 = extractvalue { i64, ptr } %19, 1
  store i64 %20, ptr %18, align 8
  %.sroa.48.0..sroa_idx = getelementptr inbounds nuw i8, ptr %17, i64 24
  store ptr %21, ptr %.sroa.48.0..sroa_idx, align 8, !tbaa !29
  %22 = getelementptr inbounds nuw i8, ptr %8, i64 72
  %23 = tail call { i64, ptr } @jv_object() #17
  %24 = extractvalue { i64, ptr } %23, 0
  %25 = extractvalue { i64, ptr } %23, 1
  %26 = tail call { i64, ptr } @jv_string(ptr noundef nonnull @.str.13) #17
  %27 = extractvalue { i64, ptr } %26, 0
  %28 = extractvalue { i64, ptr } %26, 1
  %29 = tail call { i64, ptr } @jv_null() #17
  %30 = extractvalue { i64, ptr } %29, 0
  %31 = extractvalue { i64, ptr } %29, 1
  %32 = tail call { i64, ptr } @jv_object_set(i64 %24, ptr %25, i64 %27, ptr %28, i64 %30, ptr %31) #17
  %33 = extractvalue { i64, ptr } %32, 0
  %34 = extractvalue { i64, ptr } %32, 1
  store i64 %33, ptr %22, align 8
  %.sroa.4.0..sroa_idx = getelementptr inbounds nuw i8, ptr %8, i64 80
  store ptr %34, ptr %.sroa.4.0..sroa_idx, align 8, !tbaa !29
  call void @llvm.lifetime.start.p0(i64 16, ptr nonnull %7) #17
  %35 = tail call { i64, ptr } @jv_invalid() #17
  %36 = extractvalue { i64, ptr } %35, 0
  store i64 %36, ptr %7, align 8
  %37 = getelementptr inbounds nuw i8, ptr %7, i64 8
  %38 = extractvalue { i64, ptr } %35, 1
  store ptr %38, ptr %37, align 8
  %39 = call fastcc i32 @compile(ptr noundef %8, ptr %0, ptr %1, ptr noundef %3, i64 %4, ptr %5, ptr noundef %7)
  tail call void @jv_free(i64 %4, ptr %5) #17
  %40 = load i64, ptr %7, align 8
  %41 = load ptr, ptr %37, align 8
  tail call void @jv_free(i64 %40, ptr %41) #17
  %42 = icmp sgt i32 %39, 0
  br i1 %42, label %43, label %44

43:                                               ; preds = %6
  tail call void @bytecode_free(ptr noundef nonnull %8) #17
  br label %44

44:                                               ; preds = %6, %43
  %storemerge = phi ptr [ null, %43 ], [ %8, %6 ]
  store ptr %storemerge, ptr %2, align 8, !tbaa !77
  call void @llvm.lifetime.end.p0(i64 16, ptr nonnull %7) #17
  ret i32 %39
}